target datalayout = "e-m:e-p270:32:32-p271:32:32-p272:64:64-i64:64-i128:128-f80:128-n8:16:32:64-S128"
target triple = "x86_64-pc-linux-gnu"

%"class.cv::Mat" = type { i32, i32, i32, i32, ptr, ptr, ptr, ptr, ptr, ptr, %"struct.cv::MatSize", %"struct.cv::MatStep" }
%"struct.cv::MatSize" = type { ptr }
%"struct.cv::MatStep" = type { ptr, [2 x i64] }
%"class.cv::Size_" = type { i32, i32 }
%"class.cv::Vec.56" = type { %"class.cv::Matx.57" }
%"class.cv::Matx.57" = type { [4 x float] }
%"class.cv::_OutputArray" = type { %"class.cv::_InputArray" }
%"class.cv::_InputArray" = type { i32, ptr, %"class.cv::Size_" }

; Function Attrs: inlinehint mustprogress nounwind uwtable
define linkonce_odr hidden void @_ZN2cv5Size_IiEC2Ev(ptr noundef nonnull align 4 dereferenceable(8) %0) unnamed_addr #11 comdat align 2 {
  %2 = alloca ptr, align 8
  store ptr %0, ptr %2, align 8, !tbaa !43
  %3 = load ptr, ptr %2, align 8
  %4 = getelementptr inbounds nuw %"class.cv::Size_", ptr %3, i32 0, i32 0
  store i32 0, ptr %4, align 4, !tbaa !56
  %5 = getelementptr inbounds nuw %"class.cv::Size_", ptr %3, i32 0, i32 1
  store i32 0, ptr %5, align 4, !tbaa !58
  ret void
}

; Function Attrs: inlinehint mustprogress nounwind uwtable
define linkonce_odr hidden void @_ZN2cv11_InputArray4initEiPKv(ptr noundef nonnull align 8 dereferenceable(24) %0, i32 noundef %1, ptr noundef %2) #11 comdat align 2 {
  %4 = alloca ptr, align 8
  %5 = alloca i32, align 4
  %6 = alloca ptr, align 8
  store ptr %0, ptr %4, align 8, !tbaa !12
  store i32 %1, ptr %5, align 4, !tbaa !10
  store ptr %2, ptr %6, align 8, !tbaa !132
  %7 = load ptr, ptr %4, align 8
  %8 = load i32, ptr %5, align 4, !tbaa !10
  %9 = getelementptr inbounds nuw %"class.cv::_InputArray", ptr %7, i32 0, i32 0
  store i32 %8, ptr %9, align 8, !tbaa !262
  %10 = load ptr, ptr %6, align 8, !tbaa !132
  %11 = getelementptr inbounds nuw %"class.cv::_InputArray", ptr %7, i32 0, i32 1
  store ptr %10, ptr %11, align 8, !tbaa !205
  ret void
}

; Function Attrs: inlinehint mustprogress uwtable
define linkonce_odr hidden void @_ZN2cv11_InputArrayC2Ev(ptr noundef nonnull align 8 dereferenceable(24) %0) unnamed_addr #4 comdat align 2 {
  %2 = alloca ptr, align 8
  store ptr %0, ptr %2, align 8, !tbaa !12
  %3 = load ptr, ptr %2, align 8
  %4 = getelementptr inbounds nuw %"class.cv::_InputArray", ptr %3, i32 0, i32 2
  call void @_ZN2cv5Size_IiEC2Ev(ptr noundef nonnull align 4 dereferenceable(8) %4)
  call void @_ZN2cv11_InputArray4initEiPKv(ptr noundef nonnull align 8 dereferenceable(24) %3, i32 noundef 0, ptr noundef null)
  ret void
}

; Function Attrs: inlinehint mustprogress nounwind uwtable
define linkonce_odr hidden void @_ZN2cv11_InputArrayD2Ev(ptr noundef nonnull align 8 dereferenceable(24) %0) unnamed_addr #11 comdat align 2 {
  %2 = alloca ptr, align 8
  store ptr %0, ptr %2, align 8, !tbaa !12
  ret void
}

; Function Attrs: inlinehint mustprogress uwtable
define linkonce_odr hidden void @_ZN2cv12_OutputArrayC2ERNS_3MatE(ptr noundef nonnull align 8 dereferenceable(24) %0, ptr noundef nonnull align 8 dereferenceable(96) %1) unnamed_addr #4 comdat align 2 {
  %3 = alloca ptr, align 8
  %4 = alloca ptr, align 8
  store ptr %0, ptr %3, align 8, !tbaa !39
  store ptr %1, ptr %4, align 8, !tbaa !29
  %5 = load ptr, ptr %3, align 8
  call void @_ZN2cv11_InputArrayC2Ev(ptr noundef nonnull align 8 dereferenceable(24) %5)
  %6 = load ptr, ptr %4, align 8, !tbaa !29
  call void @_ZN2cv11_InputArray4initEiPKv(ptr noundef nonnull align 8 dereferenceable(24) %5, i32 noundef 33619968, ptr noundef %6)
  ret void
}

; Function Attrs: inlinehint mustprogress nounwind uwtable
define linkonce_odr hidden noundef nonnull align 8 dereferenceable(8) ptr @_ZN2cv7MatStepixEi(ptr noundef nonnull align 8 dereferenceable(24) %0, i32 noundef %1) #11 comdat align 2 {
  %3 = alloca ptr, align 8
  %4 = alloca i32, align 4
  store ptr %0, ptr %3, align 8, !tbaa !254
  store i32 %1, ptr %4, align 4, !tbaa !10
  %5 = load ptr, ptr %3, align 8
  %6 = getelementptr inbounds nuw %"struct.cv::MatStep", ptr %5, i32 0, i32 0
  %7 = load ptr, ptr %6, align 8, !tbaa !256
  %8 = load i32, ptr %4, align 4, !tbaa !10
  %9 = sext i32 %8 to i64
  %10 = getelementptr inbounds i64, ptr %7, i64 %9
  ret ptr %10
}

; Function Attrs: inlinehint mustprogress nounwind uwtable
define linkonce_odr hidden void @_ZN2cv7MatStepC2Em(ptr noundef nonnull align 8 dereferenceable(24) %0, i64 noundef %1) unnamed_addr #11 comdat align 2 {
  %3 = alloca ptr, align 8
  %4 = alloca i64, align 8
  store ptr %0, ptr %3, align 8, !tbaa !254
  store i64 %1, ptr %4, align 8, !tbaa !100
  %5 = load ptr, ptr %3, align 8
  %6 = getelementptr inbounds nuw %"struct.cv::MatStep", ptr %5, i32 0, i32 1
  %7 = getelementptr inbounds [2 x i64], ptr %6, i64 0, i64 0
  %8 = getelementptr inbounds nuw %"struct.cv::MatStep", ptr %5, i32 0, i32 0
  store ptr %7, ptr %8, align 8, !tbaa !256
  %9 = load i64, ptr %4, align 8, !tbaa !100
  %10 = getelementptr inbounds nuw %"struct.cv::MatStep", ptr %5, i32 0, i32 0
  %11 = load ptr, ptr %10, align 8, !tbaa !256
  %12 = getelementptr inbounds i64, ptr %11, i64 0
  store i64 %9, ptr %12, align 8, !tbaa !100
  %13 = getelementptr inbounds nuw %"struct.cv::MatStep", ptr %5, i32 0, i32 0
  %14 = load ptr, ptr %13, align 8, !tbaa !256
  %15 = getelementptr inbounds i64, ptr %14, i64 1
  store i64 0, ptr %15, align 8, !tbaa !100
  ret void
}

; Function Attrs: inlinehint mustprogress nounwind uwtable
define linkonce_odr hidden void @_ZN2cv7MatSizeC2EPi(ptr noundef nonnull align 8 dereferenceable(8) %0, ptr noundef %1) unnamed_addr #11 comdat align 2 {
  %3 = alloca ptr, align 8
  %4 = alloca ptr, align 8
  store ptr %0, ptr %3, align 8, !tbaa !105
  store ptr %1, ptr %4, align 8, !tbaa !14
  %5 = load ptr, ptr %3, align 8
  %6 = getelementptr inbounds nuw %"struct.cv::MatSize", ptr %5, i32 0, i32 0
  %7 = load ptr, ptr %4, align 8, !tbaa !14
  store ptr %7, ptr %6, align 8, !tbaa !107
  ret void
}

; Function Attrs: inlinehint mustprogress nounwind uwtable
define linkonce_odr hidden void @_ZN2cv4MatxIfLi4ELi1EEC2Effff(ptr noundef nonnull align 4 dereferenceable(16) %0, float noundef %1, float noundef %2, float noundef %3, float noundef %4) unnamed_addr #11 comdat align 2 {
  %6 = alloca ptr, align 8
  %7 = alloca float, align 4
  %8 = alloca float, align 4
  %9 = alloca float, align 4
  %10 = alloca float, align 4
  %11 = alloca i32, align 4
  store ptr %0, ptr %6, align 8, !tbaa !259
  store float %1, ptr %7, align 4, !tbaa !8
  store float %2, ptr %8, align 4, !tbaa !8
  store float %3, ptr %9, align 4, !tbaa !8
  store float %4, ptr %10, align 4, !tbaa !8
  %12 = load ptr, ptr %6, align 8
  %13 = load float, ptr %7, align 4, !tbaa !8
  %14 = getelementptr inbounds nuw %"class.cv::Matx.57", ptr %12, i32 0, i32 0
  %15 = getelementptr inbounds [4 x float], ptr %14, i64 0, i64 0
  store float %13, ptr %15, align 4, !tbaa !8
  %16 = load float, ptr %8, align 4, !tbaa !8
  %17 = getelementptr inbounds nuw %"class.cv::Matx.57", ptr %12, i32 0, i32 0
  %18 = getelementptr inbounds [4 x float], ptr %17, i64 0, i64 1
  store float %16, ptr %18, align 4, !tbaa !8
  %19 = load float, ptr %9, align 4, !tbaa !8
  %20 = getelementptr inbounds nuw %"class.cv::Matx.57", ptr %12, i32 0, i32 0
  %21 = getelementptr inbounds [4 x float], ptr %20, i64 0, i64 2
  store float %19, ptr %21, align 4, !tbaa !8
  %22 = load float, ptr %10, align 4, !tbaa !8
  %23 = getelementptr inbounds nuw %"class.cv::Matx.57", ptr %12, i32 0, i32 0
  %24 = getelementptr inbounds [4 x float], ptr %23, i64 0, i64 3
  store float %22, ptr %24, align 4, !tbaa !8
  call void @llvm.lifetime.start.p0(i64 4, ptr %11) #3
  store i32 4, ptr %11, align 4, !tbaa !10
  br label %25

25:                                               ; preds = %34, %5
  %26 = load i32, ptr %11, align 4, !tbaa !10
  %27 = icmp slt i32 %26, 4
  br i1 %27, label %29, label %28

28:                                               ; preds = %25
  call void @llvm.lifetime.end.p0(i64 4, ptr %11) #3
  br label %37

29:                                               ; preds = %25
  %30 = getelementptr inbounds nuw %"class.cv::Matx.57", ptr %12, i32 0, i32 0
  %31 = load i32, ptr %11, align 4, !tbaa !10
  %32 = sext i32 %31 to i64
  %33 = getelementptr inbounds [4 x float], ptr %30, i64 0, i64 %32
  store float 0.000000e+00, ptr %33, align 4, !tbaa !8
  br label %34

34:                                               ; preds = %29
  %35 = load i32, ptr %11, align 4, !tbaa !10
  %36 = add nsw i32 %35, 1
  store i32 %36, ptr %11, align 4, !tbaa !10
  br label %25, !llvm.loop !261

37:                                               ; preds = %28
  ret void
}

; Function Attrs: inlinehint mustprogress uwtable
define linkonce_odr hidden void @_ZN2cv3MatC2IfLi4EEERKNS_3VecIT_XT0_EEEb(ptr noundef nonnull align 8 dereferenceable(96) %0, ptr noundef nonnull align 4 dereferenceable(16) %1, i1 noundef zeroext %2) unnamed_addr #4 comdat align 2 personality ptr @__gxx_personality_v0 {
  %4 = alloca ptr, align 8
  %5 = alloca ptr, align 8
  %6 = alloca i8, align 1
  %7 = alloca %"class.cv::Mat", align 8
  %8 = alloca %"class.cv::_OutputArray", align 8
  %9 = alloca ptr, align 8
  %10 = alloca i32, align 4
  store ptr %0, ptr %4, align 8, !tbaa !29
  store ptr %1, ptr %5, align 8, !tbaa !257
  %11 = zext i1 %2 to i8
  store i8 %11, ptr %6, align 1, !tbaa !86
  %12 = load ptr, ptr %4, align 8
  %13 = getelementptr inbounds nuw %"class.cv::Mat", ptr %12, i32 0, i32 0
  store i32 1124024325, ptr %13, align 8, !tbaa !88
  %14 = getelementptr inbounds nuw %"class.cv::Mat", ptr %12, i32 0, i32 1
  store i32 2, ptr %14, align 4, !tbaa !89
  %15 = getelementptr inbounds nuw %"class.cv::Mat", ptr %12, i32 0, i32 2
  store i32 4, ptr %15, align 8, !tbaa !90
  %16 = getelementptr inbounds nuw %"class.cv::Mat", ptr %12, i32 0, i32 3
  store i32 1, ptr %16, align 4, !tbaa !91
  %17 = getelementptr inbounds nuw %"class.cv::Mat", ptr %12, i32 0, i32 4
  store ptr null, ptr %17, align 8, !tbaa !92
  %18 = getelementptr inbounds nuw %"class.cv::Mat", ptr %12, i32 0, i32 5
  store ptr null, ptr %18, align 8, !tbaa !93
  %19 = getelementptr inbounds nuw %"class.cv::Mat", ptr %12, i32 0, i32 6
  store ptr null, ptr %19, align 8, !tbaa !94
  %20 = getelementptr inbounds nuw %"class.cv::Mat", ptr %12, i32 0, i32 7
  store ptr null, ptr %20, align 8, !tbaa !95
  %21 = getelementptr inbounds nuw %"class.cv::Mat", ptr %12, i32 0, i32 8
  store ptr null, ptr %21, align 8, !tbaa !96
  %22 = getelementptr inbounds nuw %"class.cv::Mat", ptr %12, i32 0, i32 9
  store ptr null, ptr %22, align 8, !tbaa !97
  %23 = getelementptr inbounds nuw %"class.cv::Mat", ptr %12, i32 0, i32 10
  %24 = getelementptr inbounds nuw %"class.cv::Mat", ptr %12, i32 0, i32 2
  call void @_ZN2cv7MatSizeC2EPi(ptr noundef nonnull align 8 dereferenceable(8) %23, ptr noundef %24) #3
  %25 = getelementptr inbounds nuw %"class.cv::Mat", ptr %12, i32 0, i32 11
  call void @_ZN2cv7MatStepC2Em(ptr noundef nonnull align 8 dereferenceable(24) %25, i64 noundef 0) #3
  %26 = load i8, ptr %6, align 1, !tbaa !86, !range !98, !noundef !99
  %27 = trunc i8 %26 to i1
  br i1 %27, label %50, label %28

28:                                               ; preds = %3
  %29 = getelementptr inbounds nuw %"class.cv::Mat", ptr %12, i32 0, i32 11
  %30 = call noundef nonnull align 8 dereferenceable(8) ptr @_ZN2cv7MatStepixEi(ptr noundef nonnull align 8 dereferenceable(24) %29, i32 noundef 1) #3
  store i64 4, ptr %30, align 8, !tbaa !100
  %31 = getelementptr inbounds nuw %"class.cv::Mat", ptr %12, i32 0, i32 11
  %32 = call noundef nonnull align 8 dereferenceable(8) ptr @_ZN2cv7MatStepixEi(ptr noundef nonnull align 8 dereferenceable(24) %31, i32 noundef 0) #3
  store i64 4, ptr %32, align 8, !tbaa !100
  %33 = load ptr, ptr %5, align 8, !tbaa !257
  %34 = getelementptr inbounds nuw %"class.cv::Matx.57", ptr %33, i32 0, i32 0
  %35 = getelementptr inbounds [4 x float], ptr %34, i64 0, i64 0
  %36 = getelementptr inbounds nuw %"class.cv::Mat", ptr %12, i32 0, i32 4
  store ptr %35, ptr %36, align 8, !tbaa !92
  %37 = getelementptr inbounds nuw %"class.cv::Mat", ptr %12, i32 0, i32 5
  store ptr %35, ptr %37, align 8, !tbaa !93
  %38 = getelementptr inbounds nuw %"class.cv::Mat", ptr %12, i32 0, i32 5
  %39 = load ptr, ptr %38, align 8, !tbaa !93
  %40 = getelementptr inbounds nuw %"class.cv::Mat", ptr %12, i32 0, i32 2
  %41 = load i32, ptr %40, align 8, !tbaa !90
  %42 = sext i32 %41 to i64
  %43 = getelementptr inbounds nuw %"class.cv::Mat", ptr %12, i32 0, i32 11
  %44 = call noundef nonnull align 8 dereferenceable(8) ptr @_ZN2cv7MatStepixEi(ptr noundef nonnull align 8 dereferenceable(24) %43, i32 noundef 0) #3
  %45 = load i64, ptr %44, align 8, !tbaa !100
  %46 = mul i64 %42, %45
  %47 = getelementptr inbounds nuw i8, ptr %39, i64 %46
  %48 = getelementptr inbounds nuw %"class.cv::Mat", ptr %12, i32 0, i32 6
  store ptr %47, ptr %48, align 8, !tbaa !94
  %49 = getelementptr inbounds nuw %"class.cv::Mat", ptr %12, i32 0, i32 7
  store ptr %47, ptr %49, align 8, !tbaa !95
  br label %65

50:                                               ; preds = %3
  call void @llvm.lifetime.start.p0(i64 96, ptr %7) #3
  %51 = load ptr, ptr %5, align 8, !tbaa !257
  %52 = getelementptr inbounds nuw %"class.cv::Matx.57", ptr %51, i32 0, i32 0
  %53 = getelementptr inbounds [4 x float], ptr %52, i64 0, i64 0
  call void @_ZN2cv3MatC1EiiiPvm(ptr noundef nonnull align 8 dereferenceable(96) %7, i32 noundef 4, i32 noundef 1, i32 noundef 5, ptr noundef %53, i64 noundef 0)
  call void @llvm.lifetime.start.p0(i64 24, ptr %8) #3
  invoke void @_ZN2cv12_OutputArrayC2ERNS_3MatE(ptr noundef nonnull align 8 dereferenceable(24) %8, ptr noundef nonnull align 8 dereferenceable(96) %12)
          to label %54 unwind label %56

54:                                               ; preds = %50
  invoke void @_ZNK2cv3Mat6copyToERKNS_12_OutputArrayE(ptr noundef nonnull align 8 dereferenceable(96) %7, ptr noundef nonnull align 8 dereferenceable(24) %8)
          to label %55 unwind label %60

55:                                               ; preds = %54
  call void @_ZN2cv11_InputArrayD2Ev(ptr noundef nonnull align 8 dereferenceable(24) %8) #3
  call void @llvm.lifetime.end.p0(i64 24, ptr %8) #3
  call void @_ZN2cv3MatD1Ev(ptr noundef nonnull align 8 dereferenceable(96) %7) #3
  call void @llvm.lifetime.end.p0(i64 96, ptr %7) #3
  br label %65

56:                                               ; preds = %50
  %57 = landingpad { ptr, i32 }
          cleanup
  %58 = extractvalue { ptr, i32 } %57, 0
  store ptr %58, ptr %9, align 8
  %59 = extractvalue { ptr, i32 } %57, 1
  store i32 %59, ptr %10, align 4
  br label %64

60:                                               ; preds = %54
  %61 = landingpad { ptr, i32 }
          cleanup
  %62 = extractvalue { ptr, i32 } %61, 0
  store ptr %62, ptr %9, align 8
  %63 = extractvalue { ptr, i32 } %61, 1
  store i32 %63, ptr %10, align 4
  call void @_ZN2cv11_InputArrayD2Ev(ptr noundef nonnull align 8 dereferenceable(24) %8) #3
  br label %64

64:                                               ; preds = %60, %56
  call void @llvm.lifetime.end.p0(i64 24, ptr %8) #3
  call void @_ZN2cv3MatD1Ev(ptr noundef nonnull align 8 dereferenceable(96) %7) #3
  call void @llvm.lifetime.end.p0(i64 96, ptr %7) #3
  br label %66

65:                                               ; preds = %55, %28
  ret void

66:                                               ; preds = %64
  %67 = load ptr, ptr %9, align 8
  %68 = load i32, ptr %10, align 4
  %69 = insertvalue { ptr, i32 } poison, ptr %67, 0
  %70 = insertvalue { ptr, i32 } %69, i32 %68, 1
  resume { ptr, i32 } %70
}

; Function Attrs: inlinehint mustprogress uwtable
define linkonce_odr hidden void @_ZN2cv3VecIfLi4EEC2Effff(ptr noundef nonnull align 4 dereferenceable(16) %0, float noundef %1, float noundef %2, float noundef %3, float noundef %4) unnamed_addr #4 comdat align 2 {
  %6 = alloca ptr, align 8
  %7 = alloca float, align 4
  %8 = alloca float, align 4
  %9 = alloca float, align 4
  %10 = alloca float, align 4
  store ptr %0, ptr %6, align 8, !tbaa !257
  store float %1, ptr %7, align 4, !tbaa !8
  store float %2, ptr %8, align 4, !tbaa !8
  store float %3, ptr %9, align 4, !tbaa !8
  store float %4, ptr %10, align 4, !tbaa !8
  %11 = load ptr, ptr %6, align 8
  %12 = load float, ptr %7, align 4, !tbaa !8
  %13 = load float, ptr %8, align 4, !tbaa !8
  %14 = load float, ptr %9, align 4, !tbaa !8
  %15 = load float, ptr %10, align 4, !tbaa !8
  call void @_ZN2cv4MatxIfLi4ELi1EEC2Effff(ptr noundef nonnull align 4 dereferenceable(16) %11, float noundef %12, float noundef %13, float noundef %14, float noundef %15)
  ret void
}

; Function Attrs: inlinehint mustprogress uwtable
define internal void @_ZN2cv4rgbdL31setDefaultMinGradientMagnitudesERNS_3MatE(ptr noundef nonnull align 8 dereferenceable(96) %0) #4 personality ptr @__gxx_personality_v0 {
  %2 = alloca ptr, align 8
  %3 = alloca %"class.cv::Mat", align 8
  %4 = alloca %"class.cv::Vec.56", align 4
  %5 = alloca ptr, align 8
  %6 = alloca i32, align 4
  store ptr %0, ptr %2, align 8, !tbaa !29
  call void @llvm.lifetime.start.p0(i64 96, ptr %3) #3
  call void @llvm.lifetime.start.p0(i64 16, ptr %4) #3
  call void @_ZN2cv3VecIfLi4EEC2Effff(ptr noundef nonnull align 4 dereferenceable(16) %4, float noundef 1.000000e+01, float noundef 1.000000e+01, float noundef 1.000000e+01, float noundef 1.000000e+01)
  call void @_ZN2cv3MatC2IfLi4EEERKNS_3VecIT_XT0_EEEb(ptr noundef nonnull align 8 dereferenceable(96) %3, ptr noundef nonnull align 4 dereferenceable(16) %4, i1 noundef zeroext true)
  %7 = load ptr, ptr %2, align 8, !tbaa !29
  %8 = invoke noundef nonnull align 8 dereferenceable(96) ptr @_ZN2cv3MataSEOS0_(ptr noundef nonnull align 8 dereferenceable(96) %7, ptr noundef nonnull align 8 dereferenceable(96) %3)
          to label %9 unwind label %10

9:                                                ; preds = %1
  call void @_ZN2cv3MatD1Ev(ptr noundef nonnull align 8 dereferenceable(96) %3) #3
  call void @llvm.lifetime.end.p0(i64 16, ptr %4) #3
  call void @llvm.lifetime.end.p0(i64 96, ptr %3) #3
  ret void

10:                                               ; preds = %1
  %11 = landingpad { ptr, i32 }
          cleanup
  %12 = extractvalue { ptr, i32 } %11, 0
  store ptr %12, ptr %5, align 8
  %13 = extractvalue { ptr, i32 } %11, 1
  store i32 %13, ptr %6, align 4
  call void @_ZN2cv3MatD1Ev(ptr noundef nonnull align 8 dereferenceable(96) %3) #3
  call void @llvm.lifetime.end.p0(i64 16, ptr %4) #3
  call void @llvm.lifetime.end.p0(i64 96, ptr %3) #3
  br label %14

14:                                               ; preds = %10
  %15 = load ptr, ptr %5, align 8
  %16 = load i32, ptr %6, align 4
  %17 = insertvalue { ptr, i32 } poison, ptr %15, 0
  %18 = insertvalue { ptr, i32 } %17, i32 %16, 1
  resume { ptr, i32 } %18
}